target datalayout = "e-m:e-p270:32:32-p271:32:32-p272:64:64-i64:64-i128:128-f80:128-n8:16:32:64-S128"
target triple = "x86_64-unknown-linux-gnu"

%"class.icu_75::UnicodeString" = type { %"class.icu_75::Replaceable", %"union.icu_75::UnicodeString::StackBufferOrFields" }
%"class.icu_75::Replaceable" = type { %"class.icu_75::UObject" }
%"class.icu_75::UObject" = type { ptr }
%"union.icu_75::UnicodeString::StackBufferOrFields" = type { %struct.anon.0, [32 x i8] }
%struct.anon.0 = type { i16, i32, i32, ptr }
%"class.icu_75::Char16Ptr" = type { ptr }

; Function Attrs: mustprogress nounwind uwtable
define linkonce_odr void @_ZN6icu_759Char16PtrD2Ev(ptr noundef nonnull align 8 dereferenceable(8) %this) unnamed_addr #0 comdat align 2 {
entry:
  %this.addr = alloca ptr, align 8
  store ptr %this, ptr %this.addr, align 8
  %this1 = load ptr, ptr %this.addr, align 8
  %p_ = getelementptr inbounds %"class.icu_75::Char16Ptr", ptr %this1, i32 0, i32 0
  %0 = load ptr, ptr %p_, align 8
  call void asm sideeffect "", "rm,~{memory},~{dirflag},~{fpsr},~{flags}"(ptr %0) #8, !srcloc !5
  ret void
}

; Function Attrs: mustprogress nounwind uwtable
define linkonce_odr void @_ZN6icu_759Char16PtrC2EPDs(ptr noundef nonnull align 8 dereferenceable(8) %this, ptr noundef %p) unnamed_addr #0 comdat align 2 {
entry:
  %this.addr = alloca ptr, align 8
  %p.addr = alloca ptr, align 8
  store ptr %this, ptr %this.addr, align 8
  store ptr %p, ptr %p.addr, align 8
  %this1 = load ptr, ptr %this.addr, align 8
  %p_ = getelementptr inbounds %"class.icu_75::Char16Ptr", ptr %this1, i32 0, i32 0
  %0 = load ptr, ptr %p.addr, align 8
  store ptr %0, ptr %p_, align 8
  ret void
}

; Function Attrs: mustprogress nounwind uwtable
define internal noundef signext i8 @_ZL9U_FAILURE10UErrorCode(i32 noundef %code) #0 {
entry:
  %code.addr = alloca i32, align 4
  store i32 %code, ptr %code.addr, align 4
  %0 = load i32, ptr %code.addr, align 4
  %cmp = icmp sgt i32 %0, 0
  %conv = zext i1 %cmp to i8
  ret i8 %conv
}

; Function Attrs: mustprogress uwtable
define i32 @unorm2_getRawDecomposition_75(ptr noundef %norm2, i32 noundef %c, ptr noundef %decomposition, i32 noundef %capacity, ptr noundef %pErrorCode) #3 personality ptr @__gxx_personality_v0 {
entry:
  %retval = alloca i32, align 4
  %norm2.addr = alloca ptr, align 8
  %c.addr = alloca i32, align 4
  %decomposition.addr = alloca ptr, align 8
  %capacity.addr = alloca i32, align 4
  %pErrorCode.addr = alloca ptr, align 8
  %destString = alloca %"class.icu_75::UnicodeString", align 8
  %exn.slot = alloca ptr, align 8
  %ehselector.slot = alloca i32, align 4
  %agg.tmp = alloca %"class.icu_75::Char16Ptr", align 8
  %cleanup.dest.slot = alloca i32, align 4
  store ptr %norm2, ptr %norm2.addr, align 8
  store i32 %c, ptr %c.addr, align 4
  store ptr %decomposition, ptr %decomposition.addr, align 8
  store i32 %capacity, ptr %capacity.addr, align 4
  store ptr %pErrorCode, ptr %pErrorCode.addr, align 8
  %0 = load ptr, ptr %pErrorCode.addr, align 8
  %1 = load i32, ptr %0, align 4
  %call = call noundef signext i8 @_ZL9U_FAILURE10UErrorCode(i32 noundef %1)
  %tobool = icmp ne i8 %call, 0
  br i1 %tobool, label %if.then, label %if.end

if.then:                                          ; preds = %entry
  store i32 0, ptr %retval, align 4
  br label %return

if.end:                                           ; preds = %entry
  %2 = load ptr, ptr %decomposition.addr, align 8
  %cmp = icmp eq ptr %2, null
  br i1 %cmp, label %cond.true, label %cond.false

cond.true:                                        ; preds = %if.end
  %3 = load i32, ptr %capacity.addr, align 4
  %cmp1 = icmp ne i32 %3, 0
  br i1 %cmp1, label %if.then3, label %if.end4

cond.false:                                       ; preds = %if.end
  %4 = load i32, ptr %capacity.addr, align 4
  %cmp2 = icmp slt i32 %4, 0
  br i1 %cmp2, label %if.then3, label %if.end4

if.then3:                                         ; preds = %cond.false, %cond.true
  %5 = load ptr, ptr %pErrorCode.addr, align 8
  store i32 1, ptr %5, align 4
  store i32 0, ptr %retval, align 4
  br label %return

if.end4:                                          ; preds = %cond.false, %cond.true
  %6 = load ptr, ptr %decomposition.addr, align 8
  %7 = load i32, ptr %capacity.addr, align 4
  call void @_ZN6icu_7513UnicodeStringC1EPDsii(ptr noundef nonnull align 8 dereferenceable(64) %destString, ptr noundef %6, i32 noundef 0, i32 noundef %7)
  %8 = load ptr, ptr %norm2.addr, align 8
  %9 = load i32, ptr %c.addr, align 4
  %vtable = load ptr, ptr %8, align 8
  %vfn = getelementptr inbounds ptr, ptr %vtable, i64 8
  %10 = load ptr, ptr %vfn, align 8
  %call5 = invoke noundef signext i8 %10(ptr noundef nonnull align 8 dereferenceable(8) %8, i32 noundef %9, ptr noundef nonnull align 8 dereferenceable(64) %destString)
          to label %invoke.cont unwind label %lpad

invoke.cont:                                      ; preds = %if.end4
  %tobool6 = icmp ne i8 %call5, 0
  br i1 %tobool6, label %if.then7, label %if.else

if.then7:                                         ; preds = %invoke.cont
  %11 = load ptr, ptr %decomposition.addr, align 8
  invoke void @_ZN6icu_759Char16PtrC2EPDs(ptr noundef nonnull align 8 dereferenceable(8) %agg.tmp, ptr noundef %11)
          to label %invoke.cont8 unwind label %lpad

invoke.cont8:                                     ; preds = %if.then7
  %12 = load i32, ptr %capacity.addr, align 4
  %13 = load ptr, ptr %pErrorCode.addr, align 8
  %call11 = invoke noundef i32 @_ZNK6icu_7513UnicodeString7extractENS_9Char16PtrEiR10UErrorCode(ptr noundef nonnull align 8 dereferenceable(64) %destString, ptr noundef %agg.tmp, i32 noundef %12, ptr noundef nonnull align 4 dereferenceable(4) %13)
          to label %invoke.cont10 unwind label %lpad9

invoke.cont10:                                    ; preds = %invoke.cont8
  store i32 %call11, ptr %retval, align 4
  call void @_ZN6icu_759Char16PtrD2Ev(ptr noundef nonnull align 8 dereferenceable(8) %agg.tmp) #8
  store i32 1, ptr %cleanup.dest.slot, align 4
  br label %cleanup

lpad:                                             ; preds = %if.then7, %if.end4
  %14 = landingpad { ptr, i32 }
          cleanup
  %15 = extractvalue { ptr, i32 } %14, 0
  store ptr %15, ptr %exn.slot, align 8
  %16 = extractvalue { ptr, i32 } %14, 1
  store i32 %16, ptr %ehselector.slot, align 4
  br label %ehcleanup

lpad9:                                            ; preds = %invoke.cont8
  %17 = landingpad { ptr, i32 }
          cleanup
  %18 = extractvalue { ptr, i32 } %17, 0
  store ptr %18, ptr %exn.slot, align 8
  %19 = extractvalue { ptr, i32 } %17, 1
  store i32 %19, ptr %ehselector.slot, align 4
  call void @_ZN6icu_759Char16PtrD2Ev(ptr noundef nonnull align 8 dereferenceable(8) %agg.tmp) #8
  br label %ehcleanup

if.else:                                          ; preds = %invoke.cont
  store i32 -1, ptr %retval, align 4
  store i32 1, ptr %cleanup.dest.slot, align 4
  br label %cleanup

cleanup:                                          ; preds = %if.else, %invoke.cont10
  call void @_ZN6icu_7513UnicodeStringD1Ev(ptr noundef nonnull align 8 dereferenceable(64) %destString) #8
  br label %return

ehcleanup:                                        ; preds = %lpad9, %lpad
  call void @_ZN6icu_7513UnicodeStringD1Ev(ptr noundef nonnull align 8 dereferenceable(64) %destString) #8
  br label %eh.resume

return:                                           ; preds = %cleanup, %if.then3, %if.then
  %20 = load i32, ptr %retval, align 4
  ret i32 %20

eh.resume:                                        ; preds = %ehcleanup
  %exn = load ptr, ptr %exn.slot, align 8
  %sel = load i32, ptr %ehselector.slot, align 4
  %lpad.val = insertvalue { ptr, i32 } poison, ptr %exn, 0
  %lpad.val12 = insertvalue { ptr, i32 } %lpad.val, i32 %sel, 1
  resume { ptr, i32 } %lpad.val12
}