; Function Attrs: mustprogress uwtable
define noundef i32 @unorm2_getRawDecomposition_75(ptr noundef %norm2, i32 noundef %c, ptr noundef %decomposition, i32 noundef %capacity, ptr noundef %pErrorCode) local_unnamed_addr #4 personality ptr @__gxx_personality_v0 {
entry:
  %destString = alloca %"class.icu_75::UnicodeString", align 8
  %agg.tmp = alloca %"class.icu_75::Char16Ptr", align 8
  %0 = load i32, ptr %pErrorCode, align 4
  %cmp.i = icmp slt i32 %0, 1
  br i1 %cmp.i, label %if.end, label %return

if.end:                                           ; preds = %entry
  %cmp = icmp eq ptr %decomposition, null
  br i1 %cmp, label %cond.true, label %cond.false

cond.true:                                        ; preds = %if.end
  %cmp1.not = icmp eq i32 %capacity, 0
  br i1 %cmp1.not, label %if.end4, label %if.then3

cond.false:                                       ; preds = %if.end
  %cmp2 = icmp slt i32 %capacity, 0
  br i1 %cmp2, label %if.then3, label %if.end4

if.then3:                                         ; preds = %cond.false, %cond.true
  store i32 1, ptr %pErrorCode, align 4
  br label %return

if.end4:                                          ; preds = %cond.false, %cond.true
  call void @_ZN6icu_7513UnicodeStringC1EPDsii(ptr noundef nonnull align 8 dereferenceable(64) %destString, ptr noundef %decomposition, i32 noundef 0, i32 noundef %capacity)
  %vtable = load ptr, ptr %norm2, align 8
  %vfn = getelementptr inbounds i8, ptr %vtable, i64 64
  %1 = load ptr, ptr %vfn, align 8
  %call5 = invoke noundef signext i8 %1(ptr noundef nonnull align 8 dereferenceable(8) %norm2, i32 noundef %c, ptr noundef nonnull align 8 dereferenceable(64) %destString)
          to label %invoke.cont unwind label %lpad

invoke.cont:                                      ; preds = %if.end4
  %tobool6.not = icmp eq i8 %call5, 0
  br i1 %tobool6.not, label %cleanup, label %if.then7

if.then7:                                         ; preds = %invoke.cont
  store ptr %decomposition, ptr %agg.tmp, align 8
  %call11 = invoke noundef i32 @_ZNK6icu_7513UnicodeString7extractENS_9Char16PtrEiR10UErrorCode(ptr noundef nonnull align 8 dereferenceable(64) %destString, ptr noundef nonnull %agg.tmp, i32 noundef %capacity, ptr noundef nonnull align 4 dereferenceable(4) %pErrorCode)
          to label %invoke.cont10 unwind label %lpad9

invoke.cont10:                                    ; preds = %if.then7
  %2 = load ptr, ptr %agg.tmp, align 8
  call void asm sideeffect "", "rm,~{memory},~{dirflag},~{fpsr},~{flags}"(ptr %2) #13, !srcloc !8
  br label %cleanup

lpad:                                             ; preds = %if.end4
  %3 = landingpad { ptr, i32 }
          cleanup
  br label %ehcleanup

lpad9:                                            ; preds = %if.then7
  %4 = landingpad { ptr, i32 }
          cleanup
  %5 = load ptr, ptr %agg.tmp, align 8
  call void asm sideeffect "", "rm,~{memory},~{dirflag},~{fpsr},~{flags}"(ptr %5) #13, !srcloc !8
  br label %ehcleanup

cleanup:                                          ; preds = %invoke.cont, %invoke.cont10
  %retval.0 = phi i32 [ %call11, %invoke.cont10 ], [ -1, %invoke.cont ]
  call void @_ZN6icu_7513UnicodeStringD1Ev(ptr noundef nonnull align 8 dereferenceable(64) %destString) #13
  br label %return

ehcleanup:                                        ; preds = %lpad9, %lpad
  %.pn = phi { ptr, i32 } [ %4, %lpad9 ], [ %3, %lpad ]
  call void @_ZN6icu_7513UnicodeStringD1Ev(ptr noundef nonnull align 8 dereferenceable(64) %destString) #13
  resume { ptr, i32 } %.pn

return:                                           ; preds = %entry, %cleanup, %if.then3
  %retval.1 = phi i32 [ 0, %if.then3 ], [ %retval.0, %cleanup ], [ 0, %entry ]
  ret i32 %retval.1
}